Certificate:
    Data:
        Version: 3 (0x2)
        Serial Number: 1 (0x1)
        Signature Algorithm: sha1WithRSAEncryption
        Issuer: DC=org, DC=simple, O=Simple Inc, OU=Simple Signing CA, CN=Simple Signing CA
        Validity
            Not Before: Dec  5 21:26:54 2020 GMT
            Not After : Dec  5 21:26:54 2022 GMT
        Subject: DC=org, DC=simple, O=Simple Inc, CN=Fred Flintstone
        Subject Public Key Info:
            Public Key Algorithm: rsaEncryption
                RSA Public-Key: (2048 bit)
                Modulus:
                    00:e3:e8:dd:cc:20:7b:07:88:cb:48:a7:d2:7f:31:
                    7e:66:af:ca:9a:0f:e3:f3:13:ce:9e:26:b7:97:a3:
                    a1:3b:ab:b4:b6:13:d0:ac:5e:a3:9e:2f:64:ae:5d:
                    35:bf:04:e2:4b:2e:b3:59:7b:ae:e2:48:b0:f9:9a:
                    ca:71:68:cc:76:ff:fd:39:05:58:93:da:69:20:8e:
                    04:7d:b6:86:09:92:5d:73:9f:3e:2d:69:2a:db:b4:
                    92:7d:76:9e:d0:04:a3:ac:39:df:c8:51:b5:18:3c:
                    13:65:6a:f2:94:8e:5a:aa:8a:f5:56:82:c0:01:80:
                    33:cd:ef:f9:a2:ab:16:7d:58:b6:9b:2b:67:9d:f4:
                    40:57:f4:00:0a:bc:3a:07:6b:0c:a4:60:e4:7b:84:
                    57:9f:05:8c:92:9e:c3:00:e0:f0:47:c6:2f:fd:79:
                    d6:28:02:8e:b3:32:e1:a7:cf:76:5f:97:67:97:b9:
                    36:af:29:51:3a:cb:16:e3:fc:fc:a2:ea:21:94:4f:
                    f2:d3:dc:5f:1f:51:fb:61:62:18:aa:b9:89:6d:61:
                    66:01:74:a6:60:5d:7a:92:9b:fc:18:fb:0e:7e:97:
                    9a:b9:e2:89:ba:2a:67:06:bd:37:3a:10:00:a3:fc:
                    79:4d:4d:9f:e9:9c:67:96:5e:b1:d5:35:7a:93:11:
                    7a:19
                Exponent: 65537 (0x10001)
        X509v3 extensions:
            X509v3 Key Usage: critical
                Digital Signature, Key Encipherment
            X509v3 Basic Constraints: 
                CA:FALSE
            X509v3 Extended Key Usage: 
                E-mail Protection, TLS Web Client Authentication
            X509v3 Subject Key Identifier: 
                30:73:B0:0F:F2:97:8E:07:F5:32:C3:44:1C:CC:4C:51:E2:ED:41:EE
            X509v3 Authority Key Identifier: 
                keyid:BD:82:65:69:7D:14:4E:45:2D:8D:23:4E:78:5B:78:F6:2C:12:5A:E1

            X509v3 Subject Alternative Name: 
                email:fred@simple.org
    Signature Algorithm: sha1WithRSAEncryption
         94:e9:74:13:82:83:74:bf:f4:de:f5:db:2b:7b:35:02:69:4e:
         bf:28:cd:b5:aa:48:cc:fe:9f:46:86:ee:98:97:05:31:27:a4:
         d2:bf:7e:b0:66:14:6a:d2:1f:a2:34:ec:76:ad:77:d1:e2:7e:
         de:d3:ad:9b:b5:7f:81:bd:13:ab:58:cc:f4:a7:bf:6e:40:e6:
         f1:4b:e2:ad:64:17:76:05:26:e3:2a:a5:1b:61:14:31:f5:d7:
         2c:29:f5:cf:0a:f8:6e:4b:22:dd:41:bd:32:bd:f7:b4:a1:64:
         32:8f:50:47:73:b7:37:e7:2e:1a:f8:a9:ed:15:cf:cd:43:c1:
         30:f5:f8:35:c8:8e:2e:98:20:34:f9:cf:bb:70:d3:10:9b:90:
         70:58:bc:13:e6:01:3b:7c:4c:7f:37:55:33:f7:46:a1:0e:6e:
         58:5c:dd:8c:ea:da:7a:01:41:1b:23:df:28:ef:bd:01:48:c1:
         53:fb:58:23:3e:47:d5:f1:93:d1:02:58:72:b9:62:1f:60:7e:
         89:71:b4:85:69:5f:af:ec:6a:3f:d7:66:d6:13:43:93:05:32:
         20:74:14:c9:e2:b0:45:e3:d8:6d:24:33:a9:37:78:a3:57:92:
         1e:69:7b:fc:2e:c6:3d:f1:86:79:e6:26:b5:83:2f:15:0d:e4:
         28:50:88:dd
-----BEGIN CERTIFICATE-----
MIID6zCCAtOgAwIBAgIBATANBgkqhkiG9w0BAQUFADB6MRMwEQYKCZImiZPyLGQB
GRYDb3JnMRYwFAYKCZImiZPyLGQBGRYGc2ltcGxlMRMwEQYDVQQKDApTaW1wbGUg
SW5jMRowGAYDVQQLDBFTaW1wbGUgU2lnbmluZyBDQTEaMBgGA1UEAwwRU2ltcGxl
IFNpZ25pbmcgQ0EwHhcNMjAxMjA1MjEyNjU0WhcNMjIxMjA1MjEyNjU0WjBcMRMw
EQYKCZImiZPyLGQBGRYDb3JnMRYwFAYKCZImiZPyLGQBGRYGc2ltcGxlMRMwEQYD
VQQKDApTaW1wbGUgSW5jMRgwFgYDVQQDDA9GcmVkIEZsaW50c3RvbmUwggEiMA0G
CSqGSIb3DQEBAQUAA4IBDwAwggEKAoIBAQDj6N3MIHsHiMtIp9J/MX5mr8qaD+Pz
E86eJreXo6E7q7S2E9CsXqOeL2SuXTW/BOJLLrNZe67iSLD5mspxaMx2//05BViT
2mkgjgR9toYJkl1znz4taSrbtJJ9dp7QBKOsOd/IUbUYPBNlavKUjlqqivVWgsAB
gDPN7/miqxZ9WLabK2ed9EBX9AAKvDoHawykYOR7hFefBYySnsMA4PBHxi/9edYo
Ao6zMuGnz3Zfl2eXuTavKVE6yxbj/Pyi6iGUT/LT3F8fUfthYhiquYltYWYBdKZg
XXqSm/wY+w5+l5q54om6KmcGvTc6EACj/HlNTZ/pnGeWXrHVNXqTEXoZAgMBAAGj
gZkwgZYwDgYDVR0PAQH/BAQDAgWgMAkGA1UdEwQCMAAwHQYDVR0lBBYwFAYIKwYB
BQUHAwQGCCsGAQUFBwMCMB0GA1UdDgQWBBQwc7AP8peOB/Uyw0QczExR4u1B7jAf
BgNVHSMEGDAWgBS9gmVpfRRORS2NI054W3j2LBJa4TAaBgNVHREEEzARgQ9mcmVk
QHNpbXBsZS5vcmcwDQYJKoZIhvcNAQEFBQADggEBAJTpdBOCg3S/9N712yt7NQJp
Tr8ozbWqSMz+n0aG7piXBTEnpNK/frBmFGrSH6I07Hatd9Hift7TrZu1f4G9E6tY
zPSnv25A5vFL4q1kF3YFJuMqpRthFDH11ywp9c8K+G5LIt1BvTK997ShZDKPUEdz
tzfnLhr4qe0Vz81DwTD1+DXIji6YIDT5z7tw0xCbkHBYvBPmATt8TH83VTP3RqEO
blhc3Yzq2noBQRsj3yjvvQFIwVP7WCM+R9Xxk9ECWHK5Yh9gfolxtIVpX6/saj/X
ZtYTQ5MFMiB0FMnisEXj2G0kM6k3eKNXkh5pe/wuxj3xhnnmJrWDLxUN5ChQiN0=
-----END CERTIFICATE-----
