Certificate:
    Data:
        Version: 3 (0x2)
        Serial Number: 2 (0x2)
        Signature Algorithm: sha1WithRSAEncryption
        Issuer: DC=org, DC=simple, O=Simple Inc, OU=Simple Root CA, CN=Simple Root CA
        Validity
            Not Before: Dec  5 21:21:16 2020 GMT
            Not After : Dec  5 21:21:16 2030 GMT
        Subject: DC=org, DC=simple, O=Simple Inc, OU=Simple Signing CA, CN=Simple Signing CA
        Subject Public Key Info:
            Public Key Algorithm: rsaEncryption
                RSA Public-Key: (2048 bit)
                Modulus:
                    00:9f:e3:85:e4:55:02:8a:ad:e3:e4:41:f8:a3:a9:
                    75:74:b6:3b:87:70:03:b6:b6:ed:dc:37:b8:f4:05:
                    aa:a5:15:ed:c3:50:87:31:42:8c:a6:5d:95:89:ce:
                    e7:96:f9:fb:e4:c5:59:07:99:af:4a:6a:7b:8c:73:
                    76:3f:24:76:32:81:c3:50:d8:40:8d:37:01:ae:71:
                    07:0d:2e:ac:84:5f:4a:b4:81:67:83:ff:c3:4b:48:
                    83:aa:11:6f:03:d5:be:62:0a:ca:ff:98:de:0a:f0:
                    27:03:cb:23:cf:99:2d:37:f0:ee:67:9e:03:d8:f0:
                    53:ee:2e:c7:30:99:d1:ed:5e:5a:cd:d0:5b:51:7d:
                    db:a9:99:35:db:7a:c9:a1:18:31:82:e0:8b:55:37:
                    15:20:4a:2a:54:64:73:b9:f3:09:3a:6b:f6:cc:d0:
                    29:22:31:72:d0:fc:2b:31:85:1e:b8:00:d0:cf:b8:
                    7c:be:96:74:7d:73:5a:f0:a8:52:b4:f1:9c:66:70:
                    06:07:e9:40:22:20:7a:79:0d:44:ea:73:93:8f:b3:
                    86:2f:7b:4f:15:1a:ca:fa:b8:8a:0d:b8:1d:33:6d:
                    d4:3e:38:49:18:2b:ef:36:58:a2:30:f3:73:e5:f6:
                    a2:ca:a8:64:ba:70:29:ba:5b:2e:11:b9:84:26:4a:
                    c4:d3
                Exponent: 65537 (0x10001)
        X509v3 extensions:
            X509v3 Key Usage: critical
                Certificate Sign, CRL Sign
            X509v3 Basic Constraints: critical
                CA:TRUE, pathlen:0
            X509v3 Subject Key Identifier: 
                BD:82:65:69:7D:14:4E:45:2D:8D:23:4E:78:5B:78:F6:2C:12:5A:E1
            X509v3 Authority Key Identifier: 
                keyid:82:C1:24:56:8A:F4:67:A2:2C:3F:AF:3E:4E:F3:72:BA:88:7A:1E:61

    Signature Algorithm: sha1WithRSAEncryption
         55:9e:4c:76:32:20:31:1a:c8:67:5f:d8:36:62:18:9b:6d:ab:
         09:de:dc:b8:90:82:02:af:f8:1e:61:57:60:41:c2:d8:25:0f:
         3b:7b:d3:fa:05:9e:ae:d4:ad:b6:1f:95:c4:38:00:e1:46:93:
         fb:ea:42:95:c4:cf:32:b3:86:ce:b5:03:d4:a3:ad:e4:ae:b4:
         95:82:38:f2:af:4a:7b:20:37:dc:00:7d:c7:b5:f3:b6:a6:54:
         2e:1d:05:bb:02:a2:6f:e5:c8:05:0f:0e:43:f3:19:9c:0a:46:
         85:9c:69:de:89:e0:0a:32:b6:84:48:61:be:a8:00:40:fe:76:
         02:25:56:cb:ab:49:1d:81:05:ca:7a:8a:09:a0:04:10:d2:cf:
         58:c6:40:0c:a1:e0:92:6b:cf:fe:e3:ee:79:09:9c:49:a9:cf:
         fd:3b:e5:45:dd:15:d8:13:9c:be:7b:47:95:74:2e:b4:c9:43:
         4f:19:6c:44:c6:48:de:26:1f:37:d1:14:5b:aa:52:7c:e4:dc:
         21:2f:a1:83:b3:6e:42:48:72:76:ef:97:27:aa:77:48:40:3a:
         2d:73:a9:69:cd:61:92:69:a2:82:39:28:59:6e:43:49:07:1d:
         4f:fb:ea:20:5a:4d:1d:06:c5:b7:3b:e7:84:7e:1e:59:9d:93:
         20:69:70:4b
-----BEGIN CERTIFICATE-----
MIIDzzCCAregAwIBAgIBAjANBgkqhkiG9w0BAQUFADB0MRMwEQYKCZImiZPyLGQB
GRYDb3JnMRYwFAYKCZImiZPyLGQBGRYGc2ltcGxlMRMwEQYDVQQKDApTaW1wbGUg
SW5jMRcwFQYDVQQLDA5TaW1wbGUgUm9vdCBDQTEXMBUGA1UEAwwOU2ltcGxlIFJv
b3QgQ0EwHhcNMjAxMjA1MjEyMTE2WhcNMzAxMjA1MjEyMTE2WjB6MRMwEQYKCZIm
iZPyLGQBGRYDb3JnMRYwFAYKCZImiZPyLGQBGRYGc2ltcGxlMRMwEQYDVQQKDApT
aW1wbGUgSW5jMRowGAYDVQQLDBFTaW1wbGUgU2lnbmluZyBDQTEaMBgGA1UEAwwR
U2ltcGxlIFNpZ25pbmcgQ0EwggEiMA0GCSqGSIb3DQEBAQUAA4IBDwAwggEKAoIB
AQCf44XkVQKKrePkQfijqXV0tjuHcAO2tu3cN7j0BaqlFe3DUIcxQoymXZWJzueW
+fvkxVkHma9KanuMc3Y/JHYygcNQ2ECNNwGucQcNLqyEX0q0gWeD/8NLSIOqEW8D
1b5iCsr/mN4K8CcDyyPPmS038O5nngPY8FPuLscwmdHtXlrN0FtRfdupmTXbesmh
GDGC4ItVNxUgSipUZHO58wk6a/bM0CkiMXLQ/CsxhR64ANDPuHy+lnR9c1rwqFK0
8ZxmcAYH6UAiIHp5DUTqc5OPs4Yve08VGsr6uIoNuB0zbdQ+OEkYK+82WKIw83Pl
9qLKqGS6cCm6Wy4RuYQmSsTTAgMBAAGjZjBkMA4GA1UdDwEB/wQEAwIBBjASBgNV
HRMBAf8ECDAGAQH/AgEAMB0GA1UdDgQWBBS9gmVpfRRORS2NI054W3j2LBJa4TAf
BgNVHSMEGDAWgBSCwSRWivRnoiw/rz5O83K6iHoeYTANBgkqhkiG9w0BAQUFAAOC
AQEAVZ5MdjIgMRrIZ1/YNmIYm22rCd7cuJCCAq/4HmFXYEHC2CUPO3vT+gWertSt
th+VxDgA4UaT++pClcTPMrOGzrUD1KOt5K60lYI48q9KeyA33AB9x7XztqZULh0F
uwKib+XIBQ8OQ/MZnApGhZxp3ongCjK2hEhhvqgAQP52AiVWy6tJHYEFynqKCaAE
ENLPWMZADKHgkmvP/uPueQmcSanP/TvlRd0V2BOcvntHlXQutMlDTxlsRMZI3iYf
N9EUW6pSfOTcIS+hg7NuQkhydu+XJ6p3SEA6LXOpac1hkmmigjkoWW5DSQcdT/vq
IFpNHQbFtzvnhH4eWZ2TIGlwSw==
-----END CERTIFICATE-----
Certificate:
    Data:
        Version: 3 (0x2)
        Serial Number: 1 (0x1)
        Signature Algorithm: sha1WithRSAEncryption
        Issuer: DC=org, DC=simple, O=Simple Inc, OU=Simple Root CA, CN=Simple Root CA
        Validity
            Not Before: Dec  5 21:15:13 2020 GMT
            Not After : Dec  5 21:15:13 2030 GMT
        Subject: DC=org, DC=simple, O=Simple Inc, OU=Simple Root CA, CN=Simple Root CA
        Subject Public Key Info:
            Public Key Algorithm: rsaEncryption
                RSA Public-Key: (2048 bit)
                Modulus:
                    00:b6:9a:b4:8e:6a:03:cc:f4:18:a2:3f:78:3c:8b:
                    c8:85:26:a6:7a:19:b4:f3:8b:72:6b:10:92:b4:82:
                    5a:28:c2:18:93:be:37:2c:ae:5a:60:b9:ca:44:f1:
                    2f:21:eb:2b:2e:1c:84:ee:68:4b:85:e3:68:7c:18:
                    a7:04:93:21:ad:02:3c:85:b2:40:f1:19:c3:7a:cf:
                    f8:ff:38:09:17:c9:81:01:c5:59:10:4e:de:e5:bf:
                    b7:a6:be:e0:e7:bc:23:84:71:29:71:2a:ed:fd:8d:
                    dc:6f:6b:8f:44:c4:51:ac:23:72:5a:a5:7b:08:cb:
                    7b:8f:5b:c3:04:dc:71:90:60:4a:42:73:d0:3d:10:
                    5f:b7:f5:19:05:58:0c:87:d4:a5:c0:94:f9:46:b0:
                    81:74:96:6e:82:0a:02:98:f1:17:ec:c2:9b:26:f1:
                    84:be:af:b1:c3:17:d1:91:c5:d2:86:98:50:0b:c6:
                    b7:83:b8:71:0e:70:d2:f8:1e:a0:b9:a3:a5:0a:18:
                    14:af:aa:b2:3c:56:2e:db:4e:40:e2:dc:77:d8:bb:
                    8f:f3:e8:ed:4d:8b:e5:ec:5e:6e:1b:28:9e:0c:a5:
                    5d:a5:d6:cb:15:4f:4a:45:8a:51:38:e8:78:12:a4:
                    35:fa:ef:89:ea:ed:bf:a8:23:38:78:5a:17:1c:82:
                    77:c3
                Exponent: 65537 (0x10001)
        X509v3 extensions:
            X509v3 Key Usage: critical
                Certificate Sign, CRL Sign
            X509v3 Basic Constraints: critical
                CA:TRUE
            X509v3 Subject Key Identifier: 
                82:C1:24:56:8A:F4:67:A2:2C:3F:AF:3E:4E:F3:72:BA:88:7A:1E:61
            X509v3 Authority Key Identifier: 
                keyid:82:C1:24:56:8A:F4:67:A2:2C:3F:AF:3E:4E:F3:72:BA:88:7A:1E:61

    Signature Algorithm: sha1WithRSAEncryption
         78:17:82:9c:ed:0b:23:2b:42:a7:4a:5f:42:f7:30:ec:b9:e2:
         05:c3:9e:51:94:3f:54:39:f0:a6:0b:7d:12:bf:03:28:6e:c8:
         65:73:17:3d:f1:44:f9:ec:80:10:2b:19:e3:e8:ac:2b:11:5f:
         f5:7a:f5:5f:ce:86:f7:ff:6c:b6:96:be:d8:58:3c:93:dc:4c:
         ff:c8:9d:73:bb:f1:f5:7b:18:2b:f5:b9:66:e5:25:6c:60:d6:
         ba:3e:61:d1:12:f7:41:c0:3c:d0:73:91:a4:32:8b:92:8d:91:
         a5:75:de:69:14:02:57:cf:e0:72:80:50:6f:0b:a3:57:fb:ab:
         5e:4e:2f:75:50:af:49:a4:5b:09:3d:e2:ff:05:8f:64:56:97:
         1b:9f:fb:0b:14:f1:c1:8d:fd:f6:d0:80:af:f5:22:df:e0:e9:
         41:56:8b:6f:6d:4f:2c:a7:7d:84:57:ff:9d:38:3f:31:65:7a:
         f4:e1:ba:52:bb:d5:1d:dc:9f:85:4b:19:1f:f8:2f:c9:05:d7:
         fc:7a:7f:fb:45:3c:b2:f3:da:4c:24:0e:cd:98:19:78:3a:1e:
         a2:51:ef:ec:03:3b:20:dc:c4:11:55:d7:2c:66:ed:82:58:22:
         7f:39:d4:e8:45:97:1f:d7:07:a0:13:cb:f9:7f:be:cc:16:39:
         bd:63:90:79
-----BEGIN CERTIFICATE-----
MIIDxjCCAq6gAwIBAgIBATANBgkqhkiG9w0BAQUFADB0MRMwEQYKCZImiZPyLGQB
GRYDb3JnMRYwFAYKCZImiZPyLGQBGRYGc2ltcGxlMRMwEQYDVQQKDApTaW1wbGUg
SW5jMRcwFQYDVQQLDA5TaW1wbGUgUm9vdCBDQTEXMBUGA1UEAwwOU2ltcGxlIFJv
b3QgQ0EwHhcNMjAxMjA1MjExNTEzWhcNMzAxMjA1MjExNTEzWjB0MRMwEQYKCZIm
iZPyLGQBGRYDb3JnMRYwFAYKCZImiZPyLGQBGRYGc2ltcGxlMRMwEQYDVQQKDApT
aW1wbGUgSW5jMRcwFQYDVQQLDA5TaW1wbGUgUm9vdCBDQTEXMBUGA1UEAwwOU2lt
cGxlIFJvb3QgQ0EwggEiMA0GCSqGSIb3DQEBAQUAA4IBDwAwggEKAoIBAQC2mrSO
agPM9BiiP3g8i8iFJqZ6GbTzi3JrEJK0gloowhiTvjcsrlpgucpE8S8h6ysuHITu
aEuF42h8GKcEkyGtAjyFskDxGcN6z/j/OAkXyYEBxVkQTt7lv7emvuDnvCOEcSlx
Ku39jdxva49ExFGsI3JapXsIy3uPW8ME3HGQYEpCc9A9EF+39RkFWAyH1KXAlPlG
sIF0lm6CCgKY8Rfswpsm8YS+r7HDF9GRxdKGmFALxreDuHEOcNL4HqC5o6UKGBSv
qrI8Vi7bTkDi3HfYu4/z6O1Ni+XsXm4bKJ4MpV2l1ssVT0pFilE46HgSpDX674nq
7b+oIzh4WhccgnfDAgMBAAGjYzBhMA4GA1UdDwEB/wQEAwIBBjAPBgNVHRMBAf8E
BTADAQH/MB0GA1UdDgQWBBSCwSRWivRnoiw/rz5O83K6iHoeYTAfBgNVHSMEGDAW
gBSCwSRWivRnoiw/rz5O83K6iHoeYTANBgkqhkiG9w0BAQUFAAOCAQEAeBeCnO0L
IytCp0pfQvcw7LniBcOeUZQ/VDnwpgt9Er8DKG7IZXMXPfFE+eyAECsZ4+isKxFf
9Xr1X86G9/9stpa+2Fg8k9xM/8idc7vx9XsYK/W5ZuUlbGDWuj5h0RL3QcA80HOR
pDKLko2RpXXeaRQCV8/gcoBQbwujV/urXk4vdVCvSaRbCT3i/wWPZFaXG5/7CxTx
wY399tCAr/Ui3+DpQVaLb21PLKd9hFf/nTg/MWV69OG6UrvVHdyfhUsZH/gvyQXX
/Hp/+0U8svPaTCQOzZgZeDoeolHv7AM7INzEEVXXLGbtglgifznU6EWXH9cHoBPL
+X++zBY5vWOQeQ==
-----END CERTIFICATE-----
