Certificate:
    Data:
        Version: 3 (0x2)
        Serial Number: 1 (0x1)
        Signature Algorithm: sha1WithRSAEncryption
        Issuer: DC=org, DC=simple, O=Simple Inc, OU=Simple Root CA, CN=Simple Root CA
        Validity
            Not Before: Dec  5 21:15:13 2020 GMT
            Not After : Dec  5 21:15:13 2030 GMT
        Subject: DC=org, DC=simple, O=Simple Inc, OU=Simple Root CA, CN=Simple Root CA
        Subject Public Key Info:
            Public Key Algorithm: rsaEncryption
                RSA Public-Key: (2048 bit)
                Modulus:
                    00:b6:9a:b4:8e:6a:03:cc:f4:18:a2:3f:78:3c:8b:
                    c8:85:26:a6:7a:19:b4:f3:8b:72:6b:10:92:b4:82:
                    5a:28:c2:18:93:be:37:2c:ae:5a:60:b9:ca:44:f1:
                    2f:21:eb:2b:2e:1c:84:ee:68:4b:85:e3:68:7c:18:
                    a7:04:93:21:ad:02:3c:85:b2:40:f1:19:c3:7a:cf:
                    f8:ff:38:09:17:c9:81:01:c5:59:10:4e:de:e5:bf:
                    b7:a6:be:e0:e7:bc:23:84:71:29:71:2a:ed:fd:8d:
                    dc:6f:6b:8f:44:c4:51:ac:23:72:5a:a5:7b:08:cb:
                    7b:8f:5b:c3:04:dc:71:90:60:4a:42:73:d0:3d:10:
                    5f:b7:f5:19:05:58:0c:87:d4:a5:c0:94:f9:46:b0:
                    81:74:96:6e:82:0a:02:98:f1:17:ec:c2:9b:26:f1:
                    84:be:af:b1:c3:17:d1:91:c5:d2:86:98:50:0b:c6:
                    b7:83:b8:71:0e:70:d2:f8:1e:a0:b9:a3:a5:0a:18:
                    14:af:aa:b2:3c:56:2e:db:4e:40:e2:dc:77:d8:bb:
                    8f:f3:e8:ed:4d:8b:e5:ec:5e:6e:1b:28:9e:0c:a5:
                    5d:a5:d6:cb:15:4f:4a:45:8a:51:38:e8:78:12:a4:
                    35:fa:ef:89:ea:ed:bf:a8:23:38:78:5a:17:1c:82:
                    77:c3
                Exponent: 65537 (0x10001)
        X509v3 extensions:
            X509v3 Key Usage: critical
                Certificate Sign, CRL Sign
            X509v3 Basic Constraints: critical
                CA:TRUE
            X509v3 Subject Key Identifier: 
                82:C1:24:56:8A:F4:67:A2:2C:3F:AF:3E:4E:F3:72:BA:88:7A:1E:61
            X509v3 Authority Key Identifier: 
                keyid:82:C1:24:56:8A:F4:67:A2:2C:3F:AF:3E:4E:F3:72:BA:88:7A:1E:61

    Signature Algorithm: sha1WithRSAEncryption
         78:17:82:9c:ed:0b:23:2b:42:a7:4a:5f:42:f7:30:ec:b9:e2:
         05:c3:9e:51:94:3f:54:39:f0:a6:0b:7d:12:bf:03:28:6e:c8:
         65:73:17:3d:f1:44:f9:ec:80:10:2b:19:e3:e8:ac:2b:11:5f:
         f5:7a:f5:5f:ce:86:f7:ff:6c:b6:96:be:d8:58:3c:93:dc:4c:
         ff:c8:9d:73:bb:f1:f5:7b:18:2b:f5:b9:66:e5:25:6c:60:d6:
         ba:3e:61:d1:12:f7:41:c0:3c:d0:73:91:a4:32:8b:92:8d:91:
         a5:75:de:69:14:02:57:cf:e0:72:80:50:6f:0b:a3:57:fb:ab:
         5e:4e:2f:75:50:af:49:a4:5b:09:3d:e2:ff:05:8f:64:56:97:
         1b:9f:fb:0b:14:f1:c1:8d:fd:f6:d0:80:af:f5:22:df:e0:e9:
         41:56:8b:6f:6d:4f:2c:a7:7d:84:57:ff:9d:38:3f:31:65:7a:
         f4:e1:ba:52:bb:d5:1d:dc:9f:85:4b:19:1f:f8:2f:c9:05:d7:
         fc:7a:7f:fb:45:3c:b2:f3:da:4c:24:0e:cd:98:19:78:3a:1e:
         a2:51:ef:ec:03:3b:20:dc:c4:11:55:d7:2c:66:ed:82:58:22:
         7f:39:d4:e8:45:97:1f:d7:07:a0:13:cb:f9:7f:be:cc:16:39:
         bd:63:90:79
-----BEGIN CERTIFICATE-----
MIIDxjCCAq6gAwIBAgIBATANBgkqhkiG9w0BAQUFADB0MRMwEQYKCZImiZPyLGQB
GRYDb3JnMRYwFAYKCZImiZPyLGQBGRYGc2ltcGxlMRMwEQYDVQQKDApTaW1wbGUg
SW5jMRcwFQYDVQQLDA5TaW1wbGUgUm9vdCBDQTEXMBUGA1UEAwwOU2ltcGxlIFJv
b3QgQ0EwHhcNMjAxMjA1MjExNTEzWhcNMzAxMjA1MjExNTEzWjB0MRMwEQYKCZIm
iZPyLGQBGRYDb3JnMRYwFAYKCZImiZPyLGQBGRYGc2ltcGxlMRMwEQYDVQQKDApT
aW1wbGUgSW5jMRcwFQYDVQQLDA5TaW1wbGUgUm9vdCBDQTEXMBUGA1UEAwwOU2lt
cGxlIFJvb3QgQ0EwggEiMA0GCSqGSIb3DQEBAQUAA4IBDwAwggEKAoIBAQC2mrSO
agPM9BiiP3g8i8iFJqZ6GbTzi3JrEJK0gloowhiTvjcsrlpgucpE8S8h6ysuHITu
aEuF42h8GKcEkyGtAjyFskDxGcN6z/j/OAkXyYEBxVkQTt7lv7emvuDnvCOEcSlx
Ku39jdxva49ExFGsI3JapXsIy3uPW8ME3HGQYEpCc9A9EF+39RkFWAyH1KXAlPlG
sIF0lm6CCgKY8Rfswpsm8YS+r7HDF9GRxdKGmFALxreDuHEOcNL4HqC5o6UKGBSv
qrI8Vi7bTkDi3HfYu4/z6O1Ni+XsXm4bKJ4MpV2l1ssVT0pFilE46HgSpDX674nq
7b+oIzh4WhccgnfDAgMBAAGjYzBhMA4GA1UdDwEB/wQEAwIBBjAPBgNVHRMBAf8E
BTADAQH/MB0GA1UdDgQWBBSCwSRWivRnoiw/rz5O83K6iHoeYTAfBgNVHSMEGDAW
gBSCwSRWivRnoiw/rz5O83K6iHoeYTANBgkqhkiG9w0BAQUFAAOCAQEAeBeCnO0L
IytCp0pfQvcw7LniBcOeUZQ/VDnwpgt9Er8DKG7IZXMXPfFE+eyAECsZ4+isKxFf
9Xr1X86G9/9stpa+2Fg8k9xM/8idc7vx9XsYK/W5ZuUlbGDWuj5h0RL3QcA80HOR
pDKLko2RpXXeaRQCV8/gcoBQbwujV/urXk4vdVCvSaRbCT3i/wWPZFaXG5/7CxTx
wY399tCAr/Ui3+DpQVaLb21PLKd9hFf/nTg/MWV69OG6UrvVHdyfhUsZH/gvyQXX
/Hp/+0U8svPaTCQOzZgZeDoeolHv7AM7INzEEVXXLGbtglgifznU6EWXH9cHoBPL
+X++zBY5vWOQeQ==
-----END CERTIFICATE-----
