Certificate:
    Data:
        Version: 3 (0x2)
        Serial Number: 2 (0x2)
        Signature Algorithm: sha1WithRSAEncryption
        Issuer: DC=org, DC=simple, O=Simple Inc, OU=Simple Root CA, CN=Simple Root CA
        Validity
            Not Before: Dec  5 21:21:16 2020 GMT
            Not After : Dec  5 21:21:16 2030 GMT
        Subject: DC=org, DC=simple, O=Simple Inc, OU=Simple Signing CA, CN=Simple Signing CA
        Subject Public Key Info:
            Public Key Algorithm: rsaEncryption
                RSA Public-Key: (2048 bit)
                Modulus:
                    00:9f:e3:85:e4:55:02:8a:ad:e3:e4:41:f8:a3:a9:
                    75:74:b6:3b:87:70:03:b6:b6:ed:dc:37:b8:f4:05:
                    aa:a5:15:ed:c3:50:87:31:42:8c:a6:5d:95:89:ce:
                    e7:96:f9:fb:e4:c5:59:07:99:af:4a:6a:7b:8c:73:
                    76:3f:24:76:32:81:c3:50:d8:40:8d:37:01:ae:71:
                    07:0d:2e:ac:84:5f:4a:b4:81:67:83:ff:c3:4b:48:
                    83:aa:11:6f:03:d5:be:62:0a:ca:ff:98:de:0a:f0:
                    27:03:cb:23:cf:99:2d:37:f0:ee:67:9e:03:d8:f0:
                    53:ee:2e:c7:30:99:d1:ed:5e:5a:cd:d0:5b:51:7d:
                    db:a9:99:35:db:7a:c9:a1:18:31:82:e0:8b:55:37:
                    15:20:4a:2a:54:64:73:b9:f3:09:3a:6b:f6:cc:d0:
                    29:22:31:72:d0:fc:2b:31:85:1e:b8:00:d0:cf:b8:
                    7c:be:96:74:7d:73:5a:f0:a8:52:b4:f1:9c:66:70:
                    06:07:e9:40:22:20:7a:79:0d:44:ea:73:93:8f:b3:
                    86:2f:7b:4f:15:1a:ca:fa:b8:8a:0d:b8:1d:33:6d:
                    d4:3e:38:49:18:2b:ef:36:58:a2:30:f3:73:e5:f6:
                    a2:ca:a8:64:ba:70:29:ba:5b:2e:11:b9:84:26:4a:
                    c4:d3
                Exponent: 65537 (0x10001)
        X509v3 extensions:
            X509v3 Key Usage: critical
                Certificate Sign, CRL Sign
            X509v3 Basic Constraints: critical
                CA:TRUE, pathlen:0
            X509v3 Subject Key Identifier: 
                BD:82:65:69:7D:14:4E:45:2D:8D:23:4E:78:5B:78:F6:2C:12:5A:E1
            X509v3 Authority Key Identifier: 
                keyid:82:C1:24:56:8A:F4:67:A2:2C:3F:AF:3E:4E:F3:72:BA:88:7A:1E:61

    Signature Algorithm: sha1WithRSAEncryption
         55:9e:4c:76:32:20:31:1a:c8:67:5f:d8:36:62:18:9b:6d:ab:
         09:de:dc:b8:90:82:02:af:f8:1e:61:57:60:41:c2:d8:25:0f:
         3b:7b:d3:fa:05:9e:ae:d4:ad:b6:1f:95:c4:38:00:e1:46:93:
         fb:ea:42:95:c4:cf:32:b3:86:ce:b5:03:d4:a3:ad:e4:ae:b4:
         95:82:38:f2:af:4a:7b:20:37:dc:00:7d:c7:b5:f3:b6:a6:54:
         2e:1d:05:bb:02:a2:6f:e5:c8:05:0f:0e:43:f3:19:9c:0a:46:
         85:9c:69:de:89:e0:0a:32:b6:84:48:61:be:a8:00:40:fe:76:
         02:25:56:cb:ab:49:1d:81:05:ca:7a:8a:09:a0:04:10:d2:cf:
         58:c6:40:0c:a1:e0:92:6b:cf:fe:e3:ee:79:09:9c:49:a9:cf:
         fd:3b:e5:45:dd:15:d8:13:9c:be:7b:47:95:74:2e:b4:c9:43:
         4f:19:6c:44:c6:48:de:26:1f:37:d1:14:5b:aa:52:7c:e4:dc:
         21:2f:a1:83:b3:6e:42:48:72:76:ef:97:27:aa:77:48:40:3a:
         2d:73:a9:69:cd:61:92:69:a2:82:39:28:59:6e:43:49:07:1d:
         4f:fb:ea:20:5a:4d:1d:06:c5:b7:3b:e7:84:7e:1e:59:9d:93:
         20:69:70:4b
-----BEGIN CERTIFICATE-----
MIIDzzCCAregAwIBAgIBAjANBgkqhkiG9w0BAQUFADB0MRMwEQYKCZImiZPyLGQB
GRYDb3JnMRYwFAYKCZImiZPyLGQBGRYGc2ltcGxlMRMwEQYDVQQKDApTaW1wbGUg
SW5jMRcwFQYDVQQLDA5TaW1wbGUgUm9vdCBDQTEXMBUGA1UEAwwOU2ltcGxlIFJv
b3QgQ0EwHhcNMjAxMjA1MjEyMTE2WhcNMzAxMjA1MjEyMTE2WjB6MRMwEQYKCZIm
iZPyLGQBGRYDb3JnMRYwFAYKCZImiZPyLGQBGRYGc2ltcGxlMRMwEQYDVQQKDApT
aW1wbGUgSW5jMRowGAYDVQQLDBFTaW1wbGUgU2lnbmluZyBDQTEaMBgGA1UEAwwR
U2ltcGxlIFNpZ25pbmcgQ0EwggEiMA0GCSqGSIb3DQEBAQUAA4IBDwAwggEKAoIB
AQCf44XkVQKKrePkQfijqXV0tjuHcAO2tu3cN7j0BaqlFe3DUIcxQoymXZWJzueW
+fvkxVkHma9KanuMc3Y/JHYygcNQ2ECNNwGucQcNLqyEX0q0gWeD/8NLSIOqEW8D
1b5iCsr/mN4K8CcDyyPPmS038O5nngPY8FPuLscwmdHtXlrN0FtRfdupmTXbesmh
GDGC4ItVNxUgSipUZHO58wk6a/bM0CkiMXLQ/CsxhR64ANDPuHy+lnR9c1rwqFK0
8ZxmcAYH6UAiIHp5DUTqc5OPs4Yve08VGsr6uIoNuB0zbdQ+OEkYK+82WKIw83Pl
9qLKqGS6cCm6Wy4RuYQmSsTTAgMBAAGjZjBkMA4GA1UdDwEB/wQEAwIBBjASBgNV
HRMBAf8ECDAGAQH/AgEAMB0GA1UdDgQWBBS9gmVpfRRORS2NI054W3j2LBJa4TAf
BgNVHSMEGDAWgBSCwSRWivRnoiw/rz5O83K6iHoeYTANBgkqhkiG9w0BAQUFAAOC
AQEAVZ5MdjIgMRrIZ1/YNmIYm22rCd7cuJCCAq/4HmFXYEHC2CUPO3vT+gWertSt
th+VxDgA4UaT++pClcTPMrOGzrUD1KOt5K60lYI48q9KeyA33AB9x7XztqZULh0F
uwKib+XIBQ8OQ/MZnApGhZxp3ongCjK2hEhhvqgAQP52AiVWy6tJHYEFynqKCaAE
ENLPWMZADKHgkmvP/uPueQmcSanP/TvlRd0V2BOcvntHlXQutMlDTxlsRMZI3iYf
N9EUW6pSfOTcIS+hg7NuQkhydu+XJ6p3SEA6LXOpac1hkmmigjkoWW5DSQcdT/vq
IFpNHQbFtzvnhH4eWZ2TIGlwSw==
-----END CERTIFICATE-----
